; Function Attrs: mustprogress uwtable
define noundef ptr @uprv_decNumberReduce_77(ptr noundef returned %0, ptr noundef %1, ptr noundef %2) local_unnamed_addr #3 {
  %4 = alloca i32, align 4
  %5 = alloca i32, align 4
  %6 = alloca i32, align 4
  call void @llvm.lifetime.start.p0(i64 4, ptr nonnull %4) #16
  store i32 0, ptr %4, align 4, !tbaa !14
  call void @llvm.lifetime.start.p0(i64 4, ptr nonnull %5) #16
  store i32 0, ptr %5, align 4, !tbaa !14
  call void @llvm.lifetime.start.p0(i64 4, ptr nonnull %6) #16
  %7 = getelementptr inbounds nuw i8, ptr %1, i64 8
  %8 = load i8, ptr %7, align 4, !tbaa !3
  %9 = and i8 %8, 48
  %.not = icmp eq i8 %9, 0
  br i1 %.not, label %12, label %10

10:                                               ; preds = %3
  %11 = call fastcc noundef ptr @_ZL7decNaNsP9decNumberPKS_S2_P10decContextPj(ptr noundef %0, ptr noundef nonnull %1, ptr noundef null, ptr noundef %2, ptr noundef %4)
  br label %20

12:                                               ; preds = %3
  %13 = getelementptr inbounds nuw i8, ptr %0, i64 8
  store i8 %8, ptr %13, align 4, !tbaa !3
  %14 = getelementptr inbounds nuw i8, ptr %1, i64 4
  %15 = load i32, ptr %14, align 4, !tbaa !8
  %16 = getelementptr inbounds nuw i8, ptr %0, i64 4
  store i32 %15, ptr %16, align 4, !tbaa !8
  %17 = getelementptr inbounds nuw i8, ptr %1, i64 9
  %18 = load i32, ptr %1, align 4, !tbaa !9
  call fastcc void @_ZL11decSetCoeffP9decNumberP10decContextPKhiPiPj(ptr noundef %0, ptr noundef readonly %2, ptr noundef nonnull %17, i32 noundef %18, ptr noundef nonnull %5, ptr noundef nonnull %4)
  call fastcc void @_ZL11decFinalizeP9decNumberP10decContextPiPj(ptr noundef %0, ptr noundef %2, ptr noundef %5, ptr noundef %4)
  %19 = call fastcc noundef ptr @_ZL7decTrimP9decNumberP10decContexthhPi(ptr noundef %0, ptr noundef %2, i8 noundef zeroext 1, i8 noundef zeroext 0, ptr noundef %6)
  br label %20

20:                                               ; preds = %12, %10
  %21 = load i32, ptr %4, align 4, !tbaa !14
  %.not14 = icmp eq i32 %21, 0
  br i1 %.not14, label %33, label %22

22:                                               ; preds = %20
  %23 = and i32 %21, 221
  %.not.i = icmp eq i32 %23, 0
  br i1 %.not.i, label %_ZL9decStatusP9decNumberjP10decContext.exit, label %24

24:                                               ; preds = %22
  %25 = and i32 %21, 1073741824
  %.not6.i = icmp eq i32 %25, 0
  br i1 %.not6.i, label %28, label %26

26:                                               ; preds = %24
  %27 = and i32 %21, -1073741825
  br label %_ZL9decStatusP9decNumberjP10decContext.exit

28:                                               ; preds = %24
  %29 = getelementptr inbounds nuw i8, ptr %0, i64 8
  %30 = getelementptr inbounds nuw i8, ptr %0, i64 4
  store i32 0, ptr %30, align 4, !tbaa !8
  store i32 1, ptr %0, align 4, !tbaa !9
  %31 = getelementptr inbounds nuw i8, ptr %0, i64 9
  store i8 0, ptr %31, align 1, !tbaa !10
  store i8 32, ptr %29, align 4, !tbaa !3
  br label %_ZL9decStatusP9decNumberjP10decContext.exit

_ZL9decStatusP9decNumberjP10decContext.exit:      ; preds = %22, %26, %28
  %.0.i = phi i32 [ %27, %26 ], [ %21, %28 ], [ %21, %22 ]
  %32 = tail call ptr @uprv_decContextSetStatus_77(ptr noundef %2, i32 noundef %.0.i)
  br label %33

33:                                               ; preds = %_ZL9decStatusP9decNumberjP10decContext.exit, %20
  call void @llvm.lifetime.end.p0(i64 4, ptr nonnull %6) #16
  call void @llvm.lifetime.end.p0(i64 4, ptr nonnull %5) #16
  call void @llvm.lifetime.end.p0(i64 4, ptr nonnull %4) #16
  ret ptr %0
}